libqtermwidget5.so.0 libqtermwidget5-0 #MINVER#
* Build-Depends-Package: libqtermwidget5-0-dev
 _ZN11QTermWidget10matchFoundEiiii@Base 0.6.0
 _ZN11QTermWidget11bracketTextER7QString@Base 0.9.0~
 _ZN11QTermWidget11getShellPIDEv@Base 0.6.0
 _ZN11QTermWidget11keyBindingsEv@Base 0.6.0
 _ZN11QTermWidget11qt_metacallEN11QMetaObject4CallEiPPv@Base 0.6.0
 _ZN11QTermWidget11qt_metacastEPKc@Base 0.6.0
 _ZN11QTermWidget11resizeEventEP12QResizeEvent@Base 0.6.0
 _ZN11QTermWidget11saveHistoryEP9QIODevice@Base 0.16.1
 _ZN11QTermWidget11scrollToEndEv@Base 0.6.0
 _ZN11QTermWidget12findPreviousEv@Base 0.6.0
 _ZN11QTermWidget12noMatchFoundEv@Base 0.6.0
 _ZN11QTermWidget12receivedDataERK7QString@Base 0.8.0
 _ZN11QTermWidget12selectedTextEb@Base 0.6.0
 _ZN11QTermWidget12sendKeyEventEP9QKeyEvent@Base 0.16.1
 _ZN11QTermWidget12setAutoCloseEb@Base 0.8.0
 _ZN11QTermWidget12setTextCodecEP10QTextCodec@Base 0.6.0
 _ZN11QTermWidget12termGetFocusEv@Base 0.6.0
 _ZN11QTermWidget12titleChangedEv@Base 0.7.0
 _ZN11QTermWidget12urlActivatedERK4QUrlb@Base 0.7.1
 _ZN11QTermWidget13copyAvailableEb@Base 0.6.0
 _ZN11QTermWidget13copyClipboardEv@Base 0.6.0
 _ZN11QTermWidget13cursorChangedEN7Konsole9Emulation19KeyboardCursorShapeEb@Base 0.8.0
 _ZN11QTermWidget13filterActionsERK6QPoint@Base 0.7.1
 _ZN11QTermWidget13isBidiEnabledEv@Base 0.9.0~
 _ZN11QTermWidget13termLostFocusEv@Base 0.6.0
 _ZN11QTermWidget14pasteClipboardEv@Base 0.6.0
 _ZN11QTermWidget14pasteSelectionEv@Base 0.6.0
 _ZN11QTermWidget14profileChangedERK7QString@Base 0.8.0
 _ZN11QTermWidget14setBidiEnabledEb@Base 0.9.0~
 _ZN11QTermWidget14setBoldIntenseEb@Base 0.16.1
 _ZN11QTermWidget14setColorSchemeERK7QString@Base 0.6.0
 _ZN11QTermWidget14setEnvironmentERK11QStringList@Base 0.6.0
 _ZN11QTermWidget14setHistorySizeEi@Base 0.6.0
 _ZN11QTermWidget14setKeyBindingsERK7QString@Base 0.6.0
 _ZN11QTermWidget14termKeyPressedEP9QKeyEvent@Base 0.6.0
 _ZN11QTermWidget15getSelectionEndERiS0_@Base 0.6.0
 _ZN11QTermWidget15getTerminalFontEv@Base 0.6.0
 _ZN11QTermWidget15sessionFinishedEv@Base 0.6.0
 _ZN11QTermWidget15setSelectionEndEii@Base 0.6.0
 _ZN11QTermWidget15setShellProgramERK7QString@Base 0.6.0
 _ZN11QTermWidget15setTerminalFontERK5QFont@Base 0.6.0
 _ZN11QTermWidget16screenLinesCountEv@Base 0.6.0
 _ZN11QTermWidget16selectionChangedEb@Base 0.6.0
 _ZN11QTermWidget16setDrawLineCharsEb@Base 0.16.1
 _ZN11QTermWidget16staticMetaObjectE@Base 0.6.0
 _ZN11QTermWidget16terminalSizeHintEv@Base 0.9.0~
 _ZN11QTermWidget16workingDirectoryEv@Base 0.6.0
 _ZN11QTermWidget17getSelectionStartERiS0_@Base 0.6.0
 _ZN11QTermWidget17historyLinesCountEv@Base 0.6.0
 _ZN11QTermWidget17setBlinkingCursorEb@Base 0.8.0
 _ZN11QTermWidget17setMonitorSilenceEb@Base 0.6.0
 _ZN11QTermWidget17setSelectionStartEii@Base 0.6.0
 _ZN11QTermWidget17setSilenceTimeoutEi@Base 0.6.0
 _ZN11QTermWidget17startShellProgramEv@Base 0.6.0
 _ZN11QTermWidget18flowControlEnabledEv@Base 0.6.0
 _ZN11QTermWidget18screenColumnsCountEv@Base 0.6.0
 _ZN11QTermWidget18setMonitorActivityEb@Base 0.6.0
 _ZN11QTermWidget18setTerminalOpacityEd@Base 0.6.0
 _ZN11QTermWidget19setTerminalSizeHintEb@Base 0.9.0~
 _ZN11QTermWidget19setWorkingDirectoryERK7QString@Base 0.6.0
 _ZN11QTermWidget19toggleShowSearchBarEv@Base 0.6.0
 _ZN11QTermWidget20availableKeyBindingsEv@Base 0.6.0
 _ZN11QTermWidget20setScrollBarPositionENS_17ScrollBarPositionE@Base 0.6.0
 _ZN11QTermWidget21availableColorSchemesEv@Base 0.6.0
 _ZN11QTermWidget21setFlowControlEnabledEb@Base 0.6.0
 _ZN11QTermWidget21setMotionAfterPastingEi@Base 0.6.0
 _ZN11QTermWidget21startTerminalTeletypeEv@Base 0.6.0
 _ZN11QTermWidget22setKeyboardCursorShapeEN7Konsole9Emulation19KeyboardCursorShapeE@Base 0.8.0
 _ZN11QTermWidget23addCustomColorSchemeDirERK7QString@Base 0.7.0
 _ZN11QTermWidget26setTerminalBackgroundImageERK7QString@Base 0.16.1
 _ZN11QTermWidget28setFlowControlWarningEnabledEb@Base 0.6.0
 _ZN11QTermWidget4bellERK7QString@Base 0.6.0
 _ZN11QTermWidget4findEv@Base 0.6.0
 _ZN11QTermWidget4initEi@Base 0.6.0
 _ZN11QTermWidget5clearEv@Base 0.6.0
 _ZN11QTermWidget6searchEbb@Base 0.6.0
 _ZN11QTermWidget6zoomInEv@Base 0.6.0
 _ZN11QTermWidget7setArgsERK11QStringList@Base 0.6.0
 _ZN11QTermWidget7setSizeERK5QSize@Base 0.6.0
 _ZN11QTermWidget7setZoomEi@Base 0.6.0
 _ZN11QTermWidget7silenceEv@Base 0.6.0
 _ZN11QTermWidget7zoomOutEv@Base 0.6.0
 _ZN11QTermWidget8activityEv@Base 0.6.0
 _ZN11QTermWidget8findNextEv@Base 0.6.0
 _ZN11QTermWidget8finishedEv@Base 0.6.0
 _ZN11QTermWidget8sendDataEPKci@Base 0.6.0
 _ZN11QTermWidget8sendTextERK7QString@Base 0.6.0
 _ZN11QTermWidget9changeDirERK7QString@Base 0.6.0
 _ZN11QTermWidget9setMarginEi@Base 0.14.0~
 _ZN11QTermWidgetC1EP7QWidget@Base 0.6.0
 _ZN11QTermWidgetC1EiP7QWidget@Base 0.6.0
 _ZN11QTermWidgetC2EP7QWidget@Base 0.6.0
 _ZN11QTermWidgetC2EiP7QWidget@Base 0.6.0
 _ZN11QTermWidgetD0Ev@Base 0.6.0
 _ZN11QTermWidgetD1Ev@Base 0.6.0
 _ZN11QTermWidgetD2Ev@Base 0.6.0
 _ZN7Konsole11FilterChain12removeFilterEPNS_6FilterE@Base 0.16.1
 _ZN7Konsole11FilterChain14containsFilterEPNS_6FilterE@Base 0.16.1
 _ZN7Konsole11FilterChain5clearEv@Base 0.16.1
 _ZN7Konsole11FilterChain5resetEv@Base 0.16.1
 _ZN7Konsole11FilterChain7processEv@Base 0.16.1
 _ZN7Konsole11FilterChain9addFilterEPNS_6FilterE@Base 0.16.1
 _ZN7Konsole11FilterChain9setBufferEPK7QStringPK5QListIiE@Base 0.16.1
 _ZN7Konsole11FilterChainD0Ev@Base 0.16.1
 _ZN7Konsole11FilterChainD1Ev@Base 0.16.1
 _ZN7Konsole11FilterChainD2Ev@Base 0.16.1
 _ZN7Konsole12RegExpFilter10newHotSpotEiiii@Base 0.16.1
 _ZN7Konsole12RegExpFilter7HotSpot16setCapturedTextsERK11QStringList@Base 0.16.1
 _ZN7Konsole12RegExpFilter7HotSpot8activateERK7QString@Base 0.16.1
 _ZN7Konsole12RegExpFilter7HotSpotC1Eiiii@Base 0.16.1
 _ZN7Konsole12RegExpFilter7HotSpotC2Eiiii@Base 0.16.1
 _ZN7Konsole12RegExpFilter7processEv@Base 0.16.1
 _ZN7Konsole12RegExpFilter9setRegExpERK7QRegExp@Base 0.16.1
 _ZN7Konsole12RegExpFilterC1Ev@Base 0.16.1
 _ZN7Konsole12RegExpFilterC2Ev@Base 0.16.1
 _ZN7Konsole6Filter10addHotSpotEPNS0_7HotSpotE@Base 0.16.1
 _ZN7Konsole6Filter13getLineColumnEiRiS1_@Base 0.16.1
 _ZN7Konsole6Filter5resetEv@Base 0.16.1
 _ZN7Konsole6Filter6bufferEv@Base 0.16.1
 _ZN7Konsole6Filter7HotSpot7actionsEv@Base 0.16.1
 _ZN7Konsole6Filter7HotSpot7setTypeENS1_4TypeE@Base 0.16.1
 _ZN7Konsole6Filter7HotSpotC1Eiiii@Base 0.16.1
 _ZN7Konsole6Filter7HotSpotC2Eiiii@Base 0.16.1
 _ZN7Konsole6Filter7HotSpotD0Ev@Base 0.16.1
 _ZN7Konsole6Filter7HotSpotD1Ev@Base 0.16.1
 _ZN7Konsole6Filter7HotSpotD2Ev@Base 0.16.1
 _ZN7Konsole6Filter9setBufferEPK7QStringPK5QListIiE@Base 0.16.1
 _ZN7Konsole6FilterC1Ev@Base 0.16.1
 _ZN7Konsole6FilterC2Ev@Base 0.16.1
 _ZN7Konsole6FilterD0Ev@Base 0.16.1
 _ZN7Konsole6FilterD1Ev@Base 0.16.1
 _ZN7Konsole6FilterD2Ev@Base 0.16.1
 _ZN7Konsole9Emulation10sendStringEPKci@Base 0.16.1
 _ZN7Konsole9Emulation10setHistoryERKNS_11HistoryTypeE@Base 0.16.1
 _ZN7Konsole9Emulation11qt_metacallEN11QMetaObject4CallEiPPv@Base 0.16.1
 _ZN7Konsole9Emulation11qt_metacastEPKc@Base 0.16.1
 _ZN7Konsole9Emulation11receiveCharEw@Base 0.16.1
 _ZN7Konsole9Emulation11receiveDataEPKci@Base 0.16.1
 _ZN7Konsole9Emulation12clearHistoryEv@Base 0.16.1
 _ZN7Konsole9Emulation12createWindowEv@Base 0.16.1
 _ZN7Konsole9Emulation12sendKeyEventEP9QKeyEvent@Base 0.16.1
 _ZN7Konsole9Emulation12setImageSizeEii@Base 0.16.1
 _ZN7Konsole9Emulation12titleChangedEiRK7QString@Base 0.16.1
 _ZN7Konsole9Emulation13cursorChangedENS0_19KeyboardCursorShapeEb@Base 0.16.1
 _ZN7Konsole9Emulation13outputChangedEv@Base 0.16.1
 _ZN7Konsole9Emulation13writeToStreamEPNS_24TerminalCharacterDecoderEii@Base 0.16.1
 _ZN7Konsole9Emulation14bufferedUpdateEv@Base 0.16.1
 _ZN7Konsole9Emulation14lockPtyRequestEb@Base 0.16.1
 _ZN7Konsole9Emulation14sendMouseEventEiiii@Base 0.16.1
 _ZN7Konsole9Emulation14setKeyBindingsERK7QString@Base 0.16.1
 _ZN7Konsole9Emulation14useUtf8RequestEb@Base 0.16.1
 _ZN7Konsole9Emulation14zmodemDetectedEv@Base 0.16.1
 _ZN7Konsole9Emulation16imageSizeChangedEii@Base 0.16.1
 _ZN7Konsole9Emulation16staticMetaObjectE@Base 0.16.1
 _ZN7Konsole9Emulation16usesMouseChangedEb@Base 0.16.1
 _ZN7Konsole9Emulation18imageResizeRequestERK5QSize@Base 0.16.1
 _ZN7Konsole9Emulation20imageSizeInitializedEv@Base 0.16.1
 _ZN7Konsole9Emulation21flowControlKeyPressedEb@Base 0.16.1
 _ZN7Konsole9Emulation23programUsesMouseChangedEb@Base 0.16.1
 _ZN7Konsole9Emulation25bracketedPasteModeChangedEb@Base 0.16.1
 _ZN7Konsole9Emulation25changeTabTextColorRequestEi@Base 0.16.1
 _ZN7Konsole9Emulation25handleCommandFromKeyboardENS_18KeyboardTranslator7CommandE@Base 0.16.1
 _ZN7Konsole9Emulation28profileChangeCommandReceivedERK7QString@Base 0.16.1
 _ZN7Konsole9Emulation32programBracketedPasteModeChangedEb@Base 0.16.1
 _ZN7Konsole9Emulation8sendDataEPKci@Base 0.16.1
 _ZN7Konsole9Emulation8setCodecENS0_14EmulationCodecE@Base 0.16.1
 _ZN7Konsole9Emulation8setCodecEPK10QTextCodec@Base 0.16.1
 _ZN7Konsole9Emulation8showBulkEv@Base 0.16.1
 _ZN7Konsole9Emulation8stateSetEi@Base 0.16.1
 _ZN7Konsole9Emulation9setScreenEi@Base 0.16.1
 _ZN7Konsole9EmulationC1Ev@Base 0.16.1
 _ZN7Konsole9EmulationC2Ev@Base 0.16.1
 _ZN7Konsole9EmulationD0Ev@Base 0.16.1
 _ZN7Konsole9EmulationD1Ev@Base 0.16.1
 _ZN7Konsole9EmulationD2Ev@Base 0.16.1
 _ZN7Konsole9UrlFilter10newHotSpotEiiii@Base 0.16.1
 _ZN7Konsole9UrlFilter11qt_metacallEN11QMetaObject4CallEiPPv@Base 0.16.1
 _ZN7Konsole9UrlFilter11qt_metacastEPKc@Base 0.16.1
 _ZN7Konsole9UrlFilter13FullUrlRegExpE@Base 0.16.1
 _ZN7Konsole9UrlFilter16staticMetaObjectE@Base 0.16.1
 _ZN7Konsole9UrlFilter17CompleteUrlRegExpE@Base 0.16.1
 _ZN7Konsole9UrlFilter18EmailAddressRegExpE@Base 0.16.1
 _ZN7Konsole9UrlFilter7HotSpot7actionsEv@Base 0.16.1
 _ZN7Konsole9UrlFilter7HotSpot8activateERK7QString@Base 0.16.1
 _ZN7Konsole9UrlFilter7HotSpotC1Eiiii@Base 0.16.1
 _ZN7Konsole9UrlFilter7HotSpotC2Eiiii@Base 0.16.1
 _ZN7Konsole9UrlFilter7HotSpotD0Ev@Base 0.16.1
 _ZN7Konsole9UrlFilter7HotSpotD1Ev@Base 0.16.1
 _ZN7Konsole9UrlFilter7HotSpotD2Ev@Base 0.16.1
 _ZN7Konsole9UrlFilter9activatedERK4QUrlb@Base 0.16.1
 _ZN7Konsole9UrlFilterC1Ev@Base 0.16.1
 _ZN7Konsole9UrlFilterC2Ev@Base 0.16.1
 _ZNK11QTermWidget10metaObjectEv@Base 0.6.0
 _ZNK11QTermWidget12getHotSpotAtERK6QPoint@Base 0.6.0
 _ZNK11QTermWidget12getHotSpotAtEii@Base 0.6.0
 _ZNK11QTermWidget13getPtySlaveFdEv@Base 0.6.0
 _ZNK11QTermWidget14isTitleChangedEv@Base 0.7.0
 _ZNK11QTermWidget4iconEv@Base 0.7.0
 _ZNK11QTermWidget5titleEv@Base 0.7.0
 _ZNK11QTermWidget8sizeHintEv@Base 0.6.0
 _ZNK11QTermWidget9getMarginEv@Base 0.14.0~
 _ZNK7Konsole11FilterChain8hotSpotsEv@Base 0.16.1
 _ZNK7Konsole11FilterChain9hotSpotAtEii@Base 0.16.1
 _ZNK7Konsole12RegExpFilter6regExpEv@Base 0.16.1
 _ZNK7Konsole12RegExpFilter7HotSpot13capturedTextsEv@Base 0.16.1
 _ZNK7Konsole6Filter14hotSpotsAtLineEi@Base 0.16.1
 _ZNK7Konsole6Filter7HotSpot11startColumnEv@Base 0.16.1
 _ZNK7Konsole6Filter7HotSpot4typeEv@Base 0.16.1
 _ZNK7Konsole6Filter7HotSpot7endLineEv@Base 0.16.1
 _ZNK7Konsole6Filter7HotSpot9endColumnEv@Base 0.16.1
 _ZNK7Konsole6Filter7HotSpot9startLineEv@Base 0.16.1
 _ZNK7Konsole6Filter8hotSpotsEv@Base 0.16.1
 _ZNK7Konsole6Filter9hotSpotAtEii@Base 0.16.1
 _ZNK7Konsole9Emulation10metaObjectEv@Base 0.16.1
 _ZNK7Konsole9Emulation11keyBindingsEv@Base 0.16.1
 _ZNK7Konsole9Emulation16programUsesMouseEv@Base 0.16.1
 _ZNK7Konsole9Emulation25programBracketedPasteModeEv@Base 0.16.1
 _ZNK7Konsole9Emulation7historyEv@Base 0.16.1
 _ZNK7Konsole9Emulation9eraseCharEv@Base 0.16.1
 _ZNK7Konsole9Emulation9imageSizeEv@Base 0.16.1
 _ZNK7Konsole9Emulation9lineCountEv@Base 0.16.1
 _ZNK7Konsole9UrlFilter10metaObjectEv@Base 0.16.1
 _ZNK7Konsole9UrlFilter7HotSpot12getUrlObjectEv@Base 0.16.1
 _ZNK7Konsole9UrlFilter7HotSpot7urlTypeEv@Base 0.16.1
 _ZNSt7__cxx1110_List_baseI10QByteArraySaIS1_EE8_M_clearEv@Base 0.16.1-1
 _ZTI11QTermWidget@Base 0.6.0
 _ZTIN7Konsole11FilterChainE@Base 0.16.1
 _ZTIN7Konsole12RegExpFilter7HotSpotE@Base 0.16.1
 _ZTIN7Konsole12RegExpFilterE@Base 0.16.1
 _ZTIN7Konsole6Filter7HotSpotE@Base 0.16.1
 _ZTIN7Konsole6FilterE@Base 0.16.1
 _ZTIN7Konsole9EmulationE@Base 0.16.1
 _ZTIN7Konsole9UrlFilter7HotSpotE@Base 0.16.1
 _ZTIN7Konsole9UrlFilterE@Base 0.16.1
 _ZTS11QTermWidget@Base 0.6.0
 _ZTSN7Konsole11FilterChainE@Base 0.16.1
 _ZTSN7Konsole12RegExpFilter7HotSpotE@Base 0.16.1
 _ZTSN7Konsole12RegExpFilterE@Base 0.16.1
 _ZTSN7Konsole6Filter7HotSpotE@Base 0.16.1
 _ZTSN7Konsole6FilterE@Base 0.16.1
 _ZTSN7Konsole9EmulationE@Base 0.16.1
 _ZTSN7Konsole9UrlFilter7HotSpotE@Base 0.16.1
 _ZTSN7Konsole9UrlFilterE@Base 0.16.1
 _ZTV11QTermWidget@Base 0.6.0
 _ZTVN7Konsole11FilterChainE@Base 0.16.1
 _ZTVN7Konsole12RegExpFilter7HotSpotE@Base 0.16.1
 _ZTVN7Konsole12RegExpFilterE@Base 0.16.1
 _ZTVN7Konsole6Filter7HotSpotE@Base 0.16.1
 _ZTVN7Konsole6FilterE@Base 0.16.1
 _ZTVN7Konsole9EmulationE@Base 0.16.1
 _ZTVN7Konsole9UrlFilter7HotSpotE@Base 0.16.1
 _ZTVN7Konsole9UrlFilterE@Base 0.16.1
 _ZThn8_N11QTermWidgetD0Ev@Base 0.6.0
 _ZThn8_N11QTermWidgetD1Ev@Base 0.6.0
